Certificate:
    Data:
        Version: 3 (0x2)
        Serial Number: 2 (0x2)
    Signature Algorithm: sha1WithRSAEncryption
        Issuer: C=SE, ST=Uppsala, L=Uppsala, O=MySQL AB
        Validity
            Not Before: Jan  4 01:46:51 2015 GMT
            Not After : Jan  1 01:46:51 2025 GMT
        Subject: C=SE, ST=Uppsala, O=MySQL AB, CN=client
        Subject Public Key Info:
            Public Key Algorithm: rsaEncryption
                Public-Key: (2048 bit)
                Modulus:
                    00:c9:26:19:41:fc:87:ac:6f:7c:44:5f:48:44:09:
                    68:bd:8b:b3:ff:ae:5d:6b:75:e2:05:1b:4d:a8:8a:
                    df:cf:82:69:eb:59:9f:8d:d7:0c:e3:00:e4:59:23:
                    ae:f0:44:4b:17:7f:25:e2:e0:54:2b:24:e1:f9:05:
                    76:3d:d4:72:f0:54:1e:83:c2:62:a1:e1:c0:c3:66:
                    e7:cd:26:f6:d9:9c:eb:e8:b5:3f:a9:00:0c:b2:2d:
                    13:34:ad:73:38:7b:e3:b0:53:91:b0:90:9d:1a:48:
                    b4:60:56:10:52:0a:60:af:f2:43:6d:42:68:b2:45:
                    cb:03:22:5d:9b:13:e5:16:cd:d8:01:ad:18:7f:cd:
                    43:93:1c:81:1e:b8:80:33:d9:74:f7:34:a1:47:e5:
                    85:da:5f:22:a1:36:bf:3a:b4:14:4f:d0:f5:af:6e:
                    d8:1b:d5:1d:5f:c2:8c:c3:bf:aa:55:ad:35:47:ea:
                    70:a7:bf:c9:82:14:4e:a4:41:d6:b4:7d:f9:94:08:
                    4f:8b:2d:07:21:85:bd:1b:01:8a:06:31:f1:b9:85:
                    06:62:81:cd:06:64:5d:5e:e5:d7:c0:84:5e:39:91:
                    01:6a:7a:43:02:eb:e3:af:18:11:75:53:2a:d8:5e:
                    0c:23:f0:f6:b5:7d:60:51:09:1c:28:9d:d8:23:b3:
                    83:47
                Exponent: 65537 (0x10001)
        X509v3 extensions:
            X509v3 Basic Constraints: 
                CA:FALSE
            Netscape Comment: 
                OpenSSL Generated Certificate
            X509v3 Subject Key Identifier: 
                70:45:34:49:30:79:25:E8:94:EF:A9:C4:F6:A8:05:D8:3F:12:00:43
            X509v3 Authority Key Identifier: 
                keyid:05:3F:17:51:45:68:BA:9B:E8:35:21:41:36:59:F0:EF:6A:F8:E5:9A

    Signature Algorithm: sha1WithRSAEncryption
         c8:70:96:b5:a8:67:bf:13:c2:72:29:d2:ba:ca:5b:44:20:0c:
         83:1c:bb:84:e1:49:df:d7:c1:ea:ab:80:9c:7a:7b:62:b9:0b:
         a4:58:19:b4:a9:3e:ec:3d:68:30:c7:fe:a6:30:99:e9:50:ed:
         3b:df:d9:49:98:32:5c:f4:4c:32:f5:a9:40:7c:26:ff:d7:55:
         5f:52:0c:e8:a1:e5:16:ac:00:24:df:a6:5d:7e:81:28:8c:16:
         0b:c0:30:b4:31:c7:41:77:0e:2e:97:50:77:c0:e3:a2:41:51:
         04:ca:de:d4:0b:c1:19:ab:8d:c7:78:75:81:71:4c:0a:c0:b1:
         5c:83:eb:d1:2a:ad:5e:62:86:0d:12:c0:68:6e:16:aa:2a:60:
         c0:b9:c2:9b:72:93:9b:e7:43:59:bc:ab:41:f6:98:b8:f3:99:
         31:83:a0:2d:2c:7d:a7:b6:13:e4:cd:d5:04:4e:af:c3:de:f0:
         b4:a2:2a:c8:33:18:1e:2e:98:04:23:84:d5:e7:c2:7c:94:0e:
         ca:d5:4a:cf:59:0f:3a:8a:c2:24:28:61:38:f8:19:76:72:ac:
         2e:e5:5e:29:ea:99:a8:34:60:f3:df:e0:71:81:7d:cb:88:5f:
         76:df:31:70:c6:b7:44:7d:59:5b:9f:de:2e:aa:d6:f9:fd:30:
         97:16:a5:c2
-----BEGIN CERTIFICATE-----
MIIDfTCCAmWgAwIBAgIBAjANBgkqhkiG9w0BAQUFADBEMQswCQYDVQQGEwJTRTEQ
MA4GA1UECAwHVXBwc2FsYTEQMA4GA1UEBwwHVXBwc2FsYTERMA8GA1UECgwITXlT
UUwgQUIwHhcNMTUwMTA0MDE0NjUxWhcNMjUwMTAxMDE0NjUxWjBDMQswCQYDVQQG
EwJTRTEQMA4GA1UECAwHVXBwc2FsYTERMA8GA1UECgwITXlTUUwgQUIxDzANBgNV
BAMMBmNsaWVudDCCASIwDQYJKoZIhvcNAQEBBQADggEPADCCAQoCggEBAMkmGUH8
h6xvfERfSEQJaL2Ls/+uXWt14gUbTaiK38+CaetZn43XDOMA5FkjrvBESxd/JeLg
VCsk4fkFdj3UcvBUHoPCYqHhwMNm580m9tmc6+i1P6kADLItEzStczh747BTkbCQ
nRpItGBWEFIKYK/yQ21CaLJFywMiXZsT5RbN2AGtGH/NQ5McgR64gDPZdPc0oUfl
hdpfIqE2vzq0FE/Q9a9u2BvVHV/CjMO/qlWtNUfqcKe/yYIUTqRB1rR9+ZQIT4st
ByGFvRsBigYx8bmFBmKBzQZkXV7l18CEXjmRAWp6QwLr468YEXVTKtheDCPw9rV9
YFEJHCid2COzg0cCAwEAAaN7MHkwCQYDVR0TBAIwADAsBglghkgBhvhCAQ0EHxYd
T3BlblNTTCBHZW5lcmF0ZWQgQ2VydGlmaWNhdGUwHQYDVR0OBBYEFHBFNEkweSXo
lO+pxPaoBdg/EgBDMB8GA1UdIwQYMBaAFAU/F1FFaLqb6DUhQTZZ8O9q+OWaMA0G
CSqGSIb3DQEBBQUAA4IBAQDIcJa1qGe/E8JyKdK6yltEIAyDHLuE4Unf18Hqq4Cc
entiuQukWBm0qT7sPWgwx/6mMJnpUO0739lJmDJc9Ewy9alAfCb/11VfUgzooeUW
rAAk36ZdfoEojBYLwDC0McdBdw4ul1B3wOOiQVEEyt7UC8EZq43HeHWBcUwKwLFc
g+vRKq1eYoYNEsBobhaqKmDAucKbcpOb50NZvKtB9pi485kxg6AtLH2nthPkzdUE
Tq/D3vC0oirIMxgeLpgEI4TV58J8lA7K1UrPWQ86isIkKGE4+Bl2cqwu5V4p6pmo
NGDz3+BxgX3LiF923zFwxrdEfVlbn94uqtb5/TCXFqXC
-----END CERTIFICATE-----
