Certificate:
    Data:
        Version: 3 (0x2)
        Serial Number: 1 (0x1)
    Signature Algorithm: sha1WithRSAEncryption
        Issuer: C=SE, ST=Uppsala, L=Uppsala, O=MySQL AB
        Validity
            Not Before: Jan  4 01:46:51 2015 GMT
            Not After : Jan  1 01:46:51 2025 GMT
        Subject: C=SE, ST=Uppsala, O=MySQL AB, CN=localhost
        Subject Public Key Info:
            Public Key Algorithm: rsaEncryption
                Public-Key: (2048 bit)
                Modulus:
                    00:d1:e2:32:7d:d9:93:c4:a0:18:cb:f1:89:2d:7e:
                    99:39:99:71:e0:44:c3:89:dd:36:4e:38:9e:b8:a1:
                    47:2c:04:2c:ee:22:24:6a:e7:94:25:c8:9a:c7:06:
                    eb:8f:85:ee:f8:5e:49:3f:4c:33:e8:6b:5f:3a:7d:
                    46:ba:b0:3c:d2:2e:47:e1:28:10:d0:1c:8c:1a:28:
                    51:a9:92:e4:8b:05:f7:0d:7b:3e:4c:6e:7c:87:75:
                    e1:f3:58:62:0e:2c:03:4e:75:84:86:92:92:ee:52:
                    c7:36:1c:d1:d0:df:7e:de:34:dc:a2:8d:93:0b:21:
                    12:cd:6c:be:a1:b5:12:86:af:9f:20:42:61:b1:b7:
                    47:d5:27:d5:a7:e3:d1:88:08:d4:81:14:7c:88:91:
                    a8:d5:5c:3d:22:48:7e:8f:0f:25:20:01:c6:d1:78:
                    d9:35:38:70:fd:28:1b:37:71:e4:86:14:ae:a7:87:
                    b0:cf:bd:53:8d:5b:b4:46:cf:3f:e1:c7:bc:95:45:
                    b9:10:2c:da:d8:c2:91:ff:d0:7f:37:cc:32:65:18:
                    4e:6f:c1:4d:2c:20:f2:bc:c4:69:e3:95:52:49:6b:
                    ac:8b:d4:5d:0d:d6:04:6a:36:f7:3a:4d:57:37:17:
                    58:69:28:3b:aa:29:18:63:67:87:b6:7e:67:0c:73:
                    97:fd
                Exponent: 65537 (0x10001)
        X509v3 extensions:
            X509v3 Basic Constraints: 
                CA:FALSE
            Netscape Comment: 
                OpenSSL Generated Certificate
            X509v3 Subject Key Identifier: 
                D9:55:80:2B:21:0B:31:4E:CF:30:3E:0A:D5:0F:75:EC:B8:D9:50:BA
            X509v3 Authority Key Identifier: 
                keyid:05:3F:17:51:45:68:BA:9B:E8:35:21:41:36:59:F0:EF:6A:F8:E5:9A

    Signature Algorithm: sha1WithRSAEncryption
         a7:d6:8d:b6:50:81:84:41:4e:45:3c:c3:62:e7:15:b3:96:ee:
         5b:bb:ee:00:61:1f:77:00:01:23:67:ca:6a:ca:29:db:1f:71:
         26:3a:a7:8d:f9:24:f6:78:81:15:a0:df:32:c2:7f:9b:ce:58:
         3c:ab:ce:74:dc:9a:03:ce:16:ac:b0:2b:e6:8a:13:3d:c5:6e:
         9b:ed:9e:ea:35:91:d5:1c:db:8c:11:fe:6c:19:9e:3a:7e:ac:
         1f:74:7a:b1:fe:df:4d:14:52:54:14:61:29:ab:8c:09:03:6c:
         58:26:bb:84:c6:a4:34:43:ee:6c:0a:e7:9d:0e:a7:27:f6:03:
         53:4d:ba:71:82:e9:1e:5f:00:ab:87:0f:4f:93:25:fc:b0:51:
         a0:f7:ca:43:cc:30:da:a5:90:72:50:61:45:41:1c:71:3d:78:
         f3:52:42:55:1e:1f:40:58:31:47:6e:f6:fb:cc:6a:ff:e3:5e:
         b1:06:40:ea:28:10:df:f1:55:9e:4e:fc:08:2d:14:5c:72:91:
         55:e2:28:87:d0:64:0d:fc:5d:b1:ac:22:7b:00:d7:a3:2c:e5:
         ba:02:f6:6d:a4:a1:70:aa:89:58:6e:dc:59:24:ee:0a:99:46:
         61:8a:74:03:fa:67:8a:fd:78:d3:01:67:75:f0:d8:c0:3b:66:
         7c:79:c8:47
-----BEGIN CERTIFICATE-----
MIIDgDCCAmigAwIBAgIBATANBgkqhkiG9w0BAQUFADBEMQswCQYDVQQGEwJTRTEQ
MA4GA1UECAwHVXBwc2FsYTEQMA4GA1UEBwwHVXBwc2FsYTERMA8GA1UECgwITXlT
UUwgQUIwHhcNMTUwMTA0MDE0NjUxWhcNMjUwMTAxMDE0NjUxWjBGMQswCQYDVQQG
EwJTRTEQMA4GA1UECAwHVXBwc2FsYTERMA8GA1UECgwITXlTUUwgQUIxEjAQBgNV
BAMMCWxvY2FsaG9zdDCCASIwDQYJKoZIhvcNAQEBBQADggEPADCCAQoCggEBANHi
Mn3Zk8SgGMvxiS1+mTmZceBEw4ndNk44nrihRywELO4iJGrnlCXImscG64+F7vhe
ST9MM+hrXzp9RrqwPNIuR+EoENAcjBooUamS5IsF9w17PkxufId14fNYYg4sA051
hIaSku5SxzYc0dDfft403KKNkwshEs1svqG1EoavnyBCYbG3R9Un1afj0YgI1IEU
fIiRqNVcPSJIfo8PJSABxtF42TU4cP0oGzdx5IYUrqeHsM+9U41btEbPP+HHvJVF
uRAs2tjCkf/QfzfMMmUYTm/BTSwg8rzEaeOVUklrrIvUXQ3WBGo29zpNVzcXWGko
O6opGGNnh7Z+Zwxzl/0CAwEAAaN7MHkwCQYDVR0TBAIwADAsBglghkgBhvhCAQ0E
HxYdT3BlblNTTCBHZW5lcmF0ZWQgQ2VydGlmaWNhdGUwHQYDVR0OBBYEFNlVgCsh
CzFOzzA+CtUPdey42VC6MB8GA1UdIwQYMBaAFAU/F1FFaLqb6DUhQTZZ8O9q+OWa
MA0GCSqGSIb3DQEBBQUAA4IBAQCn1o22UIGEQU5FPMNi5xWzlu5bu+4AYR93AAEj
Z8pqyinbH3EmOqeN+ST2eIEVoN8ywn+bzlg8q8503JoDzhassCvmihM9xW6b7Z7q
NZHVHNuMEf5sGZ46fqwfdHqx/t9NFFJUFGEpq4wJA2xYJruExqQ0Q+5sCuedDqcn
9gNTTbpxgukeXwCrhw9PkyX8sFGg98pDzDDapZByUGFFQRxxPXjzUkJVHh9AWDFH
bvb7zGr/416xBkDqKBDf8VWeTvwILRRccpFV4iiH0GQN/F2xrCJ7ANejLOW6AvZt
pKFwqolYbtxZJO4KmUZhinQD+meK/XjTAWd18NjAO2Z8echH
-----END CERTIFICATE-----
